target datalayout = "e-m:e-p270:32:32-p271:32:32-p272:64:64-i64:64-i128:128-f80:128-n8:16:32:64-S128"
target triple = "x86_64-unknown-linux-gnu"

%struct.atomic_p_t = type { ptr }
%struct.malloc_mutex_s = type { %union.anon }
%union.anon = type { %struct.anon }
%struct.anon = type { %struct.mutex_prof_data_t, %union.pthread_mutex_t, %struct.atomic_b_t }
%struct.mutex_prof_data_t = type { %struct.nstime_t, %struct.nstime_t, i64, i64, i32, %struct.atomic_u32_t, i64, ptr, i64 }
%struct.nstime_t = type { i64 }
%struct.atomic_u32_t = type { i32 }
%union.pthread_mutex_t = type { %struct.__pthread_mutex_s }
%struct.__pthread_mutex_s = type { i32, i32, i32, i32, i32, i16, i16, %struct.__pthread_internal_list }
%struct.__pthread_internal_list = type { ptr, ptr }
%struct.atomic_b_t = type { i8 }
%struct.emap_s = type { %struct.rtree_s }
%struct.rtree_s = type { ptr, %struct.malloc_mutex_s, [262144 x %struct.rtree_node_elm_s] }
%struct.rtree_node_elm_s = type { %struct.atomic_p_t }
%struct.tsd_s = type { i8, i8, i64, i64, i64, i64, i64, i64, i64, i64, i64, i64, i64, i64, ptr, i64, i64, i64, ptr, ptr, %struct.ticker_geom_s, i8, %struct.tsd_binshards_s, %struct.tsd_link_t, i8, %struct.peak_s, %struct.activity_callback_thunk_s, %struct.tcache_slow_s, %struct.rtree_ctx_s, %struct.atomic_u8_t, i64, i64, i64, i64, %struct.tcache_s, %struct.witness_tsd_s }
%struct.ticker_geom_s = type { i32, i32 }
%struct.tsd_binshards_s = type { [39 x i8] }
%struct.tsd_link_t = type { ptr, ptr }
%struct.peak_s = type { i64, i64 }
%struct.activity_callback_thunk_s = type { ptr, ptr }
%struct.tcache_slow_s = type { %struct.anon.8, %struct.cache_bin_array_descriptor_s, ptr, i32, [39 x i8], [39 x i8], [39 x i8], ptr, ptr }
%struct.anon.8 = type { ptr, ptr }
%struct.cache_bin_array_descriptor_s = type { %struct.anon.9, ptr }
%struct.anon.9 = type { ptr, ptr }
%struct.rtree_ctx_s = type { [16 x %struct.rtree_ctx_cache_elm_s], [8 x %struct.rtree_ctx_cache_elm_s] }
%struct.rtree_ctx_cache_elm_s = type { i64, ptr }
%struct.atomic_u8_t = type { i8 }
%struct.tcache_s = type { ptr, [76 x %struct.cache_bin_s] }
%struct.cache_bin_s = type { ptr, %struct.cache_bin_stats_s, i16, i16, i16 }
%struct.cache_bin_stats_s = type { i64 }
%struct.witness_tsd_s = type { %struct.witness_list_t, i8 }
%struct.witness_list_t = type { ptr }
%struct.rtree_metadata_s = type { i32, i32, i8, i8 }
%struct.emap_alloc_ctx_t = type { i32, i8 }
%struct.rtree_contents_s = type { ptr, %struct.rtree_metadata_s }

@arena_emap_global = external global %struct.emap_s, align 8
@sz_size2index_tab = external global [0 x i8], align 1

; Function Attrs: nounwind uwtable
define internal i32 @fls_lu(i64 noundef %x) #0 {
entry:
  %b.addr.i = alloca i8, align 1
  %x.addr = alloca i64, align 8
  store i64 %x, ptr %x.addr, align 8
  %0 = load i64, ptr %x.addr, align 8
  %cmp = icmp ne i64 %0, 0
  %frombool.i = zext i1 %cmp to i8
  store i8 %frombool.i, ptr %b.addr.i, align 1
  %1 = load i8, ptr %b.addr.i, align 1
  %tobool.i = trunc i8 %1 to i1
  br i1 %tobool.i, label %util_assume.exit, label %if.then.i

if.then.i:                                        ; preds = %entry
  unreachable

util_assume.exit:                                 ; preds = %entry
  %2 = load i64, ptr %x.addr, align 8
  %3 = call i64 @llvm.ctlz.i64(i64 %2, i1 true)
  %cast = trunc i64 %3 to i32
  %conv = sext i32 %cast to i64
  %xor = xor i64 63, %conv
  %conv1 = trunc i64 %xor to i32
  ret i32 %conv1
}

; Function Attrs: nounwind uwtable
define internal i32 @fls_u64(i64 noundef %x) #0 {
entry:
  %x.addr = alloca i64, align 8
  store i64 %x, ptr %x.addr, align 8
  %0 = load i64, ptr %x.addr, align 8
  %call = call i32 @fls_lu(i64 noundef %0)
  ret i32 %call
}

; Function Attrs: nounwind uwtable
define internal i32 @lg_floor(i64 noundef %x) #0 {
entry:
  %b.addr.i = alloca i8, align 1
  %x.addr = alloca i64, align 8
  store i64 %x, ptr %x.addr, align 8
  %0 = load i64, ptr %x.addr, align 8
  %cmp = icmp ne i64 %0, 0
  %frombool.i = zext i1 %cmp to i8
  store i8 %frombool.i, ptr %b.addr.i, align 1
  %1 = load i8, ptr %b.addr.i, align 1
  %tobool.i = trunc i8 %1 to i1
  br i1 %tobool.i, label %util_assume.exit, label %if.then.i

if.then.i:                                        ; preds = %entry
  unreachable

util_assume.exit:                                 ; preds = %entry
  %2 = load i64, ptr %x.addr, align 8
  %call = call i32 @fls_u64(i64 noundef %2)
  ret i32 %call
}

; Function Attrs: nounwind uwtable
define internal void @arena_dalloc_large_no_tcache(ptr noundef %tsdn, ptr noundef %ptr, i32 noundef %szind) #0 {
entry:
  %tsd.addr.i2.i = alloca ptr, align 8
  %tsd.addr.i.i = alloca ptr, align 8
  %tsd.addr.i4 = alloca ptr, align 8
  %state.i = alloca i8, align 1
  %tsd.addr.i = alloca ptr, align 8
  %tsdn.addr.i4.i = alloca ptr, align 8
  %tsdn.addr.i.i = alloca ptr, align 8
  %retval.i = alloca ptr, align 8
  %tsdn.addr.i3 = alloca ptr, align 8
  %fallback.addr.i = alloca ptr, align 8
  %edata.addr.i = alloca ptr, align 8
  %ptr.addr.i2 = alloca ptr, align 8
  %szind.addr.i = alloca i32, align 4
  %tsdn.addr.i = alloca ptr, align 8
  %emap.addr.i = alloca ptr, align 8
  %ptr.addr.i = alloca ptr, align 8
  %rtree_ctx_fallback.i = alloca %struct.rtree_ctx_s, align 8
  %rtree_ctx.i = alloca ptr, align 8
  %tmp.i = alloca %struct.rtree_contents_s, align 8
  %tsdn.addr = alloca ptr, align 8
  %ptr.addr = alloca ptr, align 8
  %szind.addr = alloca i32, align 4
  %edata = alloca ptr, align 8
  store ptr %tsdn, ptr %tsdn.addr, align 8
  store ptr %ptr, ptr %ptr.addr, align 8
  store i32 %szind, ptr %szind.addr, align 4
  %0 = load ptr, ptr %tsdn.addr, align 8
  %1 = load ptr, ptr %ptr.addr, align 8
  store ptr %0, ptr %tsdn.addr.i, align 8
  store ptr @arena_emap_global, ptr %emap.addr.i, align 8
  store ptr %1, ptr %ptr.addr.i, align 8
  %2 = load ptr, ptr %tsdn.addr.i, align 8
  store ptr %2, ptr %tsdn.addr.i3, align 8
  store ptr %rtree_ctx_fallback.i, ptr %fallback.addr.i, align 8
  %3 = load ptr, ptr %tsdn.addr.i3, align 8
  store ptr %3, ptr %tsdn.addr.i.i, align 8
  %4 = load ptr, ptr %tsdn.addr.i.i, align 8
  %cmp.i.i = icmp eq ptr %4, null
  br i1 %cmp.i.i, label %if.then.i, label %if.end.i

if.then.i:                                        ; preds = %entry
  %5 = load ptr, ptr %fallback.addr.i, align 8
  call void @rtree_ctx_data_init(ptr noundef %5) #14
  %6 = load ptr, ptr %fallback.addr.i, align 8
  store ptr %6, ptr %retval.i, align 8
  br label %tsdn_rtree_ctx.exit

if.end.i:                                         ; preds = %entry
  %7 = load ptr, ptr %tsdn.addr.i3, align 8
  store ptr %7, ptr %tsdn.addr.i4.i, align 8
  %8 = load ptr, ptr %tsdn.addr.i4.i, align 8
  store ptr %8, ptr %tsd.addr.i, align 8
  %9 = load ptr, ptr %tsd.addr.i, align 8
  store ptr %9, ptr %tsd.addr.i4, align 8
  %10 = load ptr, ptr %tsd.addr.i4, align 8
  store ptr %10, ptr %tsd.addr.i.i, align 8
  %11 = load ptr, ptr %tsd.addr.i.i, align 8
  %state.i.i = getelementptr inbounds %struct.tsd_s, ptr %11, i32 0, i32 29
  %12 = load i8, ptr %state.i.i, align 8
  store i8 %12, ptr %state.i, align 1
  %13 = load ptr, ptr %tsd.addr.i4, align 8
  store ptr %13, ptr %tsd.addr.i2.i, align 8
  %14 = load ptr, ptr %tsd.addr.i2.i, align 8
  %cant_access_tsd_items_directly_use_a_getter_or_setter_rtree_ctx.i.i = getelementptr inbounds %struct.tsd_s, ptr %14, i32 0, i32 28
  store ptr %cant_access_tsd_items_directly_use_a_getter_or_setter_rtree_ctx.i.i, ptr %retval.i, align 8
  br label %tsdn_rtree_ctx.exit

tsdn_rtree_ctx.exit:                              ; preds = %if.end.i, %if.then.i
  %15 = load ptr, ptr %retval.i, align 8
  store ptr %15, ptr %rtree_ctx.i, align 8
  %16 = load ptr, ptr %tsdn.addr.i, align 8
  %17 = load ptr, ptr %emap.addr.i, align 8
  %18 = load ptr, ptr %rtree_ctx.i, align 8
  %19 = load ptr, ptr %ptr.addr.i, align 8
  %20 = ptrtoint ptr %19 to i64
  call void @rtree_read(ptr dead_on_unwind writable sret(%struct.rtree_contents_s) align 8 %tmp.i, ptr noundef %16, ptr noundef %17, ptr noundef %18, i64 noundef %20)
  %21 = load ptr, ptr %tmp.i, align 8
  store ptr %21, ptr %edata, align 8
  %22 = load ptr, ptr %edata, align 8
  %23 = load ptr, ptr %ptr.addr, align 8
  %24 = load i32, ptr %szind.addr, align 4
  store ptr %22, ptr %edata.addr.i, align 8
  store ptr %23, ptr %ptr.addr.i2, align 8
  store i32 %24, ptr %szind.addr.i, align 4
  br i1 false, label %if.then, label %if.end

if.then:                                          ; preds = %tsdn_rtree_ctx.exit
  br label %return

if.end:                                           ; preds = %tsdn_rtree_ctx.exit
  %25 = load ptr, ptr %tsdn.addr, align 8
  %26 = load ptr, ptr %edata, align 8
  call void @large_dalloc(ptr noundef %25, ptr noundef %26)
  br label %return

return:                                           ; preds = %if.end, %if.then
  ret void
}

; Function Attrs: nounwind uwtable
define internal i32 @sz_size2index_compute(i64 noundef %size) #0 {
entry:
  %retval = alloca i32, align 4
  %size.addr = alloca i64, align 8
  %x = alloca i32, align 4
  %shift = alloca i32, align 4
  %grp = alloca i32, align 4
  %lg_delta = alloca i32, align 4
  %delta_inverse_mask = alloca i64, align 8
  %mod = alloca i32, align 4
  %index = alloca i32, align 4
  store i64 %size, ptr %size.addr, align 8
  %0 = load i64, ptr %size.addr, align 8
  %cmp = icmp ugt i64 %0, 8070450532247928832
  %lnot = xor i1 %cmp, true
  %lnot1 = xor i1 %lnot, true
  %lnot.ext = zext i1 %lnot1 to i32
  %conv = sext i32 %lnot.ext to i64
  %tobool = icmp ne i64 %conv, 0
  br i1 %tobool, label %if.then, label %if.end

if.then:                                          ; preds = %entry
  store i32 235, ptr %retval, align 4
  br label %return

if.end:                                           ; preds = %entry
  %1 = load i64, ptr %size.addr, align 8
  %cmp2 = icmp eq i64 %1, 0
  br i1 %cmp2, label %if.then4, label %if.end5

if.then4:                                         ; preds = %if.end
  store i32 0, ptr %retval, align 4
  br label %return

if.end5:                                          ; preds = %if.end
  %2 = load i64, ptr %size.addr, align 8
  %shl = shl i64 %2, 1
  %sub = sub i64 %shl, 1
  %call = call i32 @lg_floor(i64 noundef %sub)
  store i32 %call, ptr %x, align 4
  %3 = load i32, ptr %x, align 4
  %cmp6 = icmp ult i32 %3, 5
  br i1 %cmp6, label %cond.true, label %cond.false

cond.true:                                        ; preds = %if.end5
  br label %cond.end

cond.false:                                       ; preds = %if.end5
  %4 = load i32, ptr %x, align 4
  %sub8 = sub i32 %4, 5
  br label %cond.end

cond.end:                                         ; preds = %cond.false, %cond.true
  %cond = phi i32 [ 0, %cond.true ], [ %sub8, %cond.false ]
  store i32 %cond, ptr %shift, align 4
  %5 = load i32, ptr %shift, align 4
  %shl9 = shl i32 %5, 2
  store i32 %shl9, ptr %grp, align 4
  %6 = load i32, ptr %x, align 4
  %cmp10 = icmp ult i32 %6, 6
  br i1 %cmp10, label %cond.true12, label %cond.false13

cond.true12:                                      ; preds = %cond.end
  br label %cond.end16

cond.false13:                                     ; preds = %cond.end
  %7 = load i32, ptr %x, align 4
  %sub14 = sub i32 %7, 2
  %sub15 = sub i32 %sub14, 1
  br label %cond.end16

cond.end16:                                       ; preds = %cond.false13, %cond.true12
  %cond17 = phi i32 [ 3, %cond.true12 ], [ %sub15, %cond.false13 ]
  store i32 %cond17, ptr %lg_delta, align 4
  %8 = load i32, ptr %lg_delta, align 4
  %sh_prom = zext i32 %8 to i64
  %shl18 = shl i64 -1, %sh_prom
  store i64 %shl18, ptr %delta_inverse_mask, align 8
  %9 = load i64, ptr %size.addr, align 8
  %sub19 = sub i64 %9, 1
  %10 = load i64, ptr %delta_inverse_mask, align 8
  %and = and i64 %sub19, %10
  %11 = load i32, ptr %lg_delta, align 4
  %sh_prom20 = zext i32 %11 to i64
  %shr = lshr i64 %and, %sh_prom20
  %and21 = and i64 %shr, 3
  %conv22 = trunc i64 %and21 to i32
  store i32 %conv22, ptr %mod, align 4
  %12 = load i32, ptr %grp, align 4
  %add = add i32 0, %12
  %13 = load i32, ptr %mod, align 4
  %add23 = add i32 %add, %13
  store i32 %add23, ptr %index, align 4
  %14 = load i32, ptr %index, align 4
  store i32 %14, ptr %retval, align 4
  br label %return

return:                                           ; preds = %cond.end16, %if.then4, %if.then
  %15 = load i32, ptr %retval, align 4
  ret i32 %15
}

; Function Attrs: nounwind uwtable
define internal void @arena_sdalloc_no_tcache(ptr noundef %tsdn, ptr noundef %ptr, i64 noundef %size) #0 {
entry:
  %size.addr.i12 = alloca i64, align 8
  %size.addr.i10 = alloca i64, align 8
  %ret.i = alloca i32, align 4
  %retval.i = alloca i32, align 4
  %size.addr.i = alloca i64, align 8
  %tsdn.addr = alloca ptr, align 8
  %ptr.addr = alloca ptr, align 8
  %size.addr = alloca i64, align 8
  %alloc_ctx = alloca %struct.emap_alloc_ctx_t, align 4
  store ptr %tsdn, ptr %tsdn.addr, align 8
  store ptr %ptr, ptr %ptr.addr, align 8
  store i64 %size, ptr %size.addr, align 8
  br label %do.body

do.body:                                          ; preds = %entry
  br label %do.end

do.end:                                           ; preds = %do.body
  br label %do.body1

do.body1:                                         ; preds = %do.end
  br label %do.end2

do.end2:                                          ; preds = %do.body1
  %0 = load i64, ptr %size.addr, align 8
  store i64 %0, ptr %size.addr.i, align 8
  %1 = load i64, ptr %size.addr.i, align 8
  %cmp.i = icmp ule i64 %1, 4096
  br i1 %cmp.i, label %if.then.i, label %if.end.i

if.then.i:                                        ; preds = %do.end2
  %2 = load i64, ptr %size.addr.i, align 8
  store i64 %2, ptr %size.addr.i10, align 8
  %3 = load i64, ptr %size.addr.i10, align 8
  store i64 %3, ptr %size.addr.i12, align 8
  %4 = load i64, ptr %size.addr.i12, align 8
  %add.i = add i64 %4, 8
  %sub.i = sub i64 %add.i, 1
  %shr.i = lshr i64 %sub.i, 3
  %arrayidx.i = getelementptr inbounds [0 x i8], ptr @sz_size2index_tab, i64 0, i64 %shr.i
  %5 = load i8, ptr %arrayidx.i, align 1
  %conv.i13 = zext i8 %5 to i32
  store i32 %conv.i13, ptr %ret.i, align 4
  %6 = load i32, ptr %ret.i, align 4
  store i32 %6, ptr %retval.i, align 4
  br label %sz_size2index.exit

if.end.i:                                         ; preds = %do.end2
  %7 = load i64, ptr %size.addr.i, align 8
  %call2.i = call i32 @sz_size2index_compute(i64 noundef %7)
  store i32 %call2.i, ptr %retval.i, align 4
  br label %sz_size2index.exit

sz_size2index.exit:                               ; preds = %if.end.i, %if.then.i
  %8 = load i32, ptr %retval.i, align 4
  %szind = getelementptr inbounds %struct.emap_alloc_ctx_t, ptr %alloc_ctx, i32 0, i32 0
  store i32 %8, ptr %szind, align 4
  %szind3 = getelementptr inbounds %struct.emap_alloc_ctx_t, ptr %alloc_ctx, i32 0, i32 0
  %9 = load i32, ptr %szind3, align 4
  %conv = zext i32 %9 to i64
  %cmp = icmp ult i64 %conv, 39
  %slab = getelementptr inbounds %struct.emap_alloc_ctx_t, ptr %alloc_ctx, i32 0, i32 1
  %frombool = zext i1 %cmp to i8
  store i8 %frombool, ptr %slab, align 4
  %slab5 = getelementptr inbounds %struct.emap_alloc_ctx_t, ptr %alloc_ctx, i32 0, i32 1
  %10 = load i8, ptr %slab5, align 4
  %tobool = trunc i8 %10 to i1
  %lnot = xor i1 %tobool, true
  %lnot6 = xor i1 %lnot, true
  %lnot.ext = zext i1 %lnot6 to i32
  %conv7 = sext i32 %lnot.ext to i64
  %tobool8 = icmp ne i64 %conv7, 0
  br i1 %tobool8, label %if.then, label %if.else

if.then:                                          ; preds = %sz_size2index.exit
  %11 = load ptr, ptr %tsdn.addr, align 8
  %12 = load ptr, ptr %ptr.addr, align 8
  call void @arena_dalloc_small(ptr noundef %11, ptr noundef %12)
  br label %if.end

if.else:                                          ; preds = %sz_size2index.exit
  %13 = load ptr, ptr %tsdn.addr, align 8
  %14 = load ptr, ptr %ptr.addr, align 8
  %szind9 = getelementptr inbounds %struct.emap_alloc_ctx_t, ptr %alloc_ctx, i32 0, i32 0
  %15 = load i32, ptr %szind9, align 4
  call void @arena_dalloc_large_no_tcache(ptr noundef %13, ptr noundef %14, i32 noundef %15)
  br label %if.end

if.end:                                           ; preds = %if.else, %if.then
  ret void
}